target datalayout = "e-m:e-p270:32:32-p271:32:32-p272:64:64-i64:64-i128:128-f80:128-n8:16:32:64-S128"
target triple = "x86_64-pc-linux-gnu"

%struct.expert_field = type { i32, i32 }
%struct.MessageHeader = type { [4 x i8], %struct.Version, i8, i8, i32, i32, i32, ptr }
%struct.Version = type { i8, i8 }

@hf_GIAS_CreateMetaDataRequest_complete_return = internal global i32 0, align 4
@ei_gias_unknown_giop_msg = internal global %struct.expert_field zeroinitializer, align 4
@ei_gias_unknown_exception = internal global %struct.expert_field zeroinitializer, align 4
@boundary = internal global i32 12, align 4
@.str.826 = private unnamed_addr constant [21 x i8] c"Unknown exception %d\00", align 1
@.str.827 = private unnamed_addr constant [24 x i8] c"Unknown GIOP message %d\00", align 1

; Function Attrs: null_pointer_is_valid sspstrong uwtable
define internal void @decode_GIAS_CreateMetaDataRequest_complete(ptr noundef %0, ptr noundef %1, ptr noundef %2, ptr noundef %3, ptr noundef %4, ptr noundef %5, ptr noundef %6, i1 noundef zeroext %7) #0 {
  %9 = alloca ptr, align 8
  %10 = alloca ptr, align 8
  %11 = alloca ptr, align 8
  %12 = alloca ptr, align 8
  %13 = alloca ptr, align 8
  %14 = alloca ptr, align 8
  %15 = alloca ptr, align 8
  %16 = alloca i8, align 1
  %17 = alloca i32, align 4
  store ptr %0, ptr %9, align 8
  store ptr %1, ptr %10, align 8
  store ptr %2, ptr %11, align 8
  store ptr %3, ptr %12, align 8
  store ptr %4, ptr %13, align 8
  store ptr %5, ptr %14, align 8
  store ptr %6, ptr %15, align 8
  %18 = zext i1 %7 to i8
  store i8 %18, ptr %16, align 1
  call void @llvm.lifetime.start.p0(i64 4, ptr %17) #6
  %19 = load ptr, ptr %14, align 8
  %20 = getelementptr inbounds nuw %struct.MessageHeader, ptr %19, i32 0, i32 3
  %21 = load i8, ptr %20, align 1
  %22 = zext i8 %21 to i32
  switch i32 %22, label %57 [
    i32 0, label %65
    i32 1, label %23
  ]

23:                                               ; preds = %8
  %24 = load ptr, ptr %14, align 8
  %25 = getelementptr inbounds nuw %struct.MessageHeader, ptr %24, i32 0, i32 6
  %26 = load i32, ptr %25, align 8
  switch i32 %26, label %49 [
    i32 0, label %27
    i32 1, label %56
  ]

27:                                               ; preds = %23
  %28 = load ptr, ptr %9, align 8
  %29 = load ptr, ptr %13, align 8
  %30 = load i8, ptr %16, align 1, !range !6, !noundef !7
  %31 = trunc i8 %30 to i1
  %32 = load i32, ptr @boundary, align 4
  %33 = call i32 @get_CDR_enum(ptr noundef %28, ptr noundef %29, i1 noundef zeroext %31, i32 noundef %32)
  store i32 %33, ptr %17, align 4
  %34 = load ptr, ptr %11, align 8
  %35 = load i32, ptr @hf_GIAS_CreateMetaDataRequest_complete_return, align 4
  %36 = load ptr, ptr %9, align 8
  %37 = load ptr, ptr %13, align 8
  %38 = load i32, ptr %37, align 4
  %39 = sub i32 %38, 4
  %40 = load i32, ptr %17, align 4
  %41 = call ptr @proto_tree_add_uint(ptr noundef %34, i32 noundef %35, ptr noundef %36, i32 noundef %39, i32 noundef 4, i32 noundef %40)
  %42 = load ptr, ptr %9, align 8
  %43 = load ptr, ptr %10, align 8
  %44 = load ptr, ptr %11, align 8
  %45 = load ptr, ptr %13, align 8
  %46 = load i8, ptr %16, align 1, !range !6, !noundef !7
  %47 = trunc i8 %46 to i1
  %48 = load i32, ptr @boundary, align 4
  call void @get_CDR_object(ptr noundef %42, ptr noundef %43, ptr noundef %44, ptr noundef %45, i1 noundef zeroext %47, i32 noundef %48)
  br label %56

49:                                               ; preds = %23
  %50 = load ptr, ptr %10, align 8
  %51 = load ptr, ptr %12, align 8
  %52 = load ptr, ptr %14, align 8
  %53 = getelementptr inbounds nuw %struct.MessageHeader, ptr %52, i32 0, i32 6
  %54 = load i32, ptr %53, align 8
  %55 = call ptr (ptr, ptr, ptr, ptr, ...) @expert_add_info_format(ptr noundef %50, ptr noundef %51, ptr noundef @ei_gias_unknown_exception, ptr noundef @.str.826, i32 noundef %54)
  br label %56

56:                                               ; preds = %49, %23, %27
  br label %65

57:                                               ; preds = %8
  %58 = load ptr, ptr %10, align 8
  %59 = load ptr, ptr %12, align 8
  %60 = load ptr, ptr %14, align 8
  %61 = getelementptr inbounds nuw %struct.MessageHeader, ptr %60, i32 0, i32 3
  %62 = load i8, ptr %61, align 1
  %63 = zext i8 %62 to i32
  %64 = call ptr (ptr, ptr, ptr, ptr, ...) @expert_add_info_format(ptr noundef %58, ptr noundef %59, ptr noundef @ei_gias_unknown_giop_msg, ptr noundef @.str.827, i32 noundef %63)
  br label %65

65:                                               ; preds = %57, %56, %8
  call void @llvm.lifetime.end.p0(i64 4, ptr %17) #6
  ret void
}